target datalayout = "e-m:e-p270:32:32-p271:32:32-p272:64:64-i64:64-i128:128-f80:128-n8:16:32:64-S128"
target triple = "x86_64-pc-linux-gnu"

%struct.xSAT_Solver_t_ = type { ptr, ptr, ptr, ptr, ptr, i32, i32, ptr, ptr, ptr, ptr, ptr, ptr, ptr, ptr, ptr, i32, i32, i64, ptr, ptr, float, i32, i64, i32, ptr, ptr, ptr, ptr, ptr, i32, ptr, %struct.xSAT_SolverOptions_t_, %struct.xSAT_Stats_t_ }
%struct.xSAT_SolverOptions_t_ = type { i8, i64, i64, i64, double, double, i32, i32, i32, i32, i32, i32, i32 }
%struct.xSAT_Stats_t_ = type { i32, i32, i64, i64, i64, i64, i64, i64 }

@.str = private unnamed_addr constant [107 x i8] c"==========================================[ BLACK MAGIC ]================================================\0A\00", align 1
@.str.1 = private unnamed_addr constant [107 x i8] c"|                                |                                |                                     |\0A\00", align 1
@.str.2 = private unnamed_addr constant [107 x i8] c"| - Restarts:                    | - Reduce Clause DB:            | - Minimize Asserting:               |\0A\00", align 1
@.str.3 = private unnamed_addr constant [101 x i8] c"|   * LBD Queue    : %6d      |   * First     : %6d         |    * size < %3d                     |\0A\00", align 1
@.str.4 = private unnamed_addr constant [101 x i8] c"|   * Trail Queue  : %6d      |   * Inc       : %6d         |    * lbd  < %3d                     |\0A\00", align 1
@.str.5 = private unnamed_addr constant [103 x i8] c"|   * K            : %6.2f      |   * Special   : %6d         |                                     |\0A\00", align 1
@.str.6 = private unnamed_addr constant [107 x i8] c"|   * R            : %6.2f      |   * Protected :  (lbd)< %2d     |                                     |\0A\00", align 1
@.str.7 = private unnamed_addr constant [107 x i8] c"=========================================================================================================\0A\00", align 1

; Function Attrs: nounwind uwtable
define i32 @xSAT_SolverSolve(ptr noundef %0) #0 {
  %2 = alloca ptr, align 8
  %3 = alloca i8, align 1
  store ptr %0, ptr %2, align 8, !tbaa !3
  call void @llvm.lifetime.start.p0(i64 1, ptr %3) #10
  store i8 0, ptr %3, align 1, !tbaa !9
  %4 = load ptr, ptr %2, align 8, !tbaa !3
  %5 = getelementptr inbounds nuw %struct.xSAT_Solver_t_, ptr %4, i32 0, i32 32
  %6 = getelementptr inbounds nuw %struct.xSAT_SolverOptions_t_, ptr %5, i32 0, i32 0
  %7 = load i8, ptr %6, align 8, !tbaa !112
  %8 = icmp ne i8 %7, 0
  br i1 %8, label %9, label %51

9:                                                ; preds = %1
  %10 = call i32 (ptr, ...) @printf(ptr noundef @.str)
  %11 = call i32 (ptr, ...) @printf(ptr noundef @.str.1)
  %12 = call i32 (ptr, ...) @printf(ptr noundef @.str.2)
  %13 = load ptr, ptr %2, align 8, !tbaa !3
  %14 = getelementptr inbounds nuw %struct.xSAT_Solver_t_, ptr %13, i32 0, i32 32
  %15 = getelementptr inbounds nuw %struct.xSAT_SolverOptions_t_, ptr %14, i32 0, i32 7
  %16 = load i32, ptr %15, align 4, !tbaa !48
  %17 = load ptr, ptr %2, align 8, !tbaa !3
  %18 = getelementptr inbounds nuw %struct.xSAT_Solver_t_, ptr %17, i32 0, i32 32
  %19 = getelementptr inbounds nuw %struct.xSAT_SolverOptions_t_, ptr %18, i32 0, i32 9
  %20 = load i32, ptr %19, align 4, !tbaa !52
  %21 = call i32 (ptr, ...) @printf(ptr noundef @.str.3, i32 noundef %16, i32 noundef %20, i32 noundef 0)
  %22 = load ptr, ptr %2, align 8, !tbaa !3
  %23 = getelementptr inbounds nuw %struct.xSAT_Solver_t_, ptr %22, i32 0, i32 32
  %24 = getelementptr inbounds nuw %struct.xSAT_SolverOptions_t_, ptr %23, i32 0, i32 8
  %25 = load i32, ptr %24, align 8, !tbaa !46
  %26 = load ptr, ptr %2, align 8, !tbaa !3
  %27 = getelementptr inbounds nuw %struct.xSAT_Solver_t_, ptr %26, i32 0, i32 32
  %28 = getelementptr inbounds nuw %struct.xSAT_SolverOptions_t_, ptr %27, i32 0, i32 10
  %29 = load i32, ptr %28, align 8, !tbaa !113
  %30 = call i32 (ptr, ...) @printf(ptr noundef @.str.4, i32 noundef %25, i32 noundef %29, i32 noundef 0)
  %31 = load ptr, ptr %2, align 8, !tbaa !3
  %32 = getelementptr inbounds nuw %struct.xSAT_Solver_t_, ptr %31, i32 0, i32 32
  %33 = getelementptr inbounds nuw %struct.xSAT_SolverOptions_t_, ptr %32, i32 0, i32 4
  %34 = load double, ptr %33, align 8, !tbaa !114
  %35 = load ptr, ptr %2, align 8, !tbaa !3
  %36 = getelementptr inbounds nuw %struct.xSAT_Solver_t_, ptr %35, i32 0, i32 32
  %37 = getelementptr inbounds nuw %struct.xSAT_SolverOptions_t_, ptr %36, i32 0, i32 11
  %38 = load i32, ptr %37, align 4, !tbaa !115
  %39 = call i32 (ptr, ...) @printf(ptr noundef @.str.5, double noundef %34, i32 noundef %38)
  %40 = load ptr, ptr %2, align 8, !tbaa !3
  %41 = getelementptr inbounds nuw %struct.xSAT_Solver_t_, ptr %40, i32 0, i32 32
  %42 = getelementptr inbounds nuw %struct.xSAT_SolverOptions_t_, ptr %41, i32 0, i32 5
  %43 = load double, ptr %42, align 8, !tbaa !116
  %44 = load ptr, ptr %2, align 8, !tbaa !3
  %45 = getelementptr inbounds nuw %struct.xSAT_Solver_t_, ptr %44, i32 0, i32 32
  %46 = getelementptr inbounds nuw %struct.xSAT_SolverOptions_t_, ptr %45, i32 0, i32 12
  %47 = load i32, ptr %46, align 8, !tbaa !117
  %48 = call i32 (ptr, ...) @printf(ptr noundef @.str.6, double noundef %43, i32 noundef %47)
  %49 = call i32 (ptr, ...) @printf(ptr noundef @.str.1)
  %50 = call i32 (ptr, ...) @printf(ptr noundef @.str.7)
  br label %51

51:                                               ; preds = %9, %1
  br label %52

52:                                               ; preds = %56, %51
  %53 = load i8, ptr %3, align 1, !tbaa !9
  %54 = sext i8 %53 to i32
  %55 = icmp eq i32 %54, 0
  br i1 %55, label %56, label %59

56:                                               ; preds = %52
  %57 = load ptr, ptr %2, align 8, !tbaa !3
  %58 = call signext i8 @xSAT_SolverSearch(ptr noundef %57)
  store i8 %58, ptr %3, align 1, !tbaa !9
  br label %52, !llvm.loop !118

59:                                               ; preds = %52
  %60 = load ptr, ptr %2, align 8, !tbaa !3
  %61 = getelementptr inbounds nuw %struct.xSAT_Solver_t_, ptr %60, i32 0, i32 32
  %62 = getelementptr inbounds nuw %struct.xSAT_SolverOptions_t_, ptr %61, i32 0, i32 0
  %63 = load i8, ptr %62, align 8, !tbaa !112
  %64 = icmp ne i8 %63, 0
  br i1 %64, label %65, label %67

65:                                               ; preds = %59
  %66 = call i32 (ptr, ...) @printf(ptr noundef @.str.7)
  br label %67

67:                                               ; preds = %65, %59
  %68 = load ptr, ptr %2, align 8, !tbaa !3
  call void @xSAT_SolverCancelUntil(ptr noundef %68, i32 noundef 0)
  %69 = load i8, ptr %3, align 1, !tbaa !9
  %70 = sext i8 %69 to i32
  call void @llvm.lifetime.end.p0(i64 1, ptr %3) #10
  ret i32 %70
}