; Function Attrs: nounwind uwtable
define range(i32 -128, 128) i32 @xSAT_SolverSolve(ptr noundef %0) local_unnamed_addr #3 {
  %2 = getelementptr inbounds nuw i8, ptr %0, i64 232
  %3 = load i8, ptr %2, align 8, !tbaa !101
  %.not = icmp eq i8 %3, 0
  br i1 %.not, label %.preheader, label %4

4:                                                ; preds = %1
  %puts = tail call i32 @puts(ptr nonnull dereferenceable(1) @str)
  %puts14 = tail call i32 @puts(ptr nonnull dereferenceable(1) @str.3)
  %puts15 = tail call i32 @puts(ptr nonnull dereferenceable(1) @str.2)
  %5 = getelementptr inbounds nuw i8, ptr %0, i64 284
  %6 = load i32, ptr %5, align 4, !tbaa !62
  %7 = getelementptr inbounds nuw i8, ptr %0, i64 292
  %8 = load i32, ptr %7, align 4, !tbaa !66
  %9 = tail call i32 (ptr, ...) @printf(ptr noundef nonnull dereferenceable(1) @.str.3, i32 noundef %6, i32 noundef %8, i32 noundef 0)
  %10 = getelementptr inbounds nuw i8, ptr %0, i64 288
  %11 = load i32, ptr %10, align 8, !tbaa !57
  %12 = getelementptr inbounds nuw i8, ptr %0, i64 296
  %13 = load i32, ptr %12, align 8, !tbaa !102
  %14 = tail call i32 (ptr, ...) @printf(ptr noundef nonnull dereferenceable(1) @.str.4, i32 noundef %11, i32 noundef %13, i32 noundef 0)
  %15 = getelementptr inbounds nuw i8, ptr %0, i64 264
  %16 = load double, ptr %15, align 8, !tbaa !103
  %17 = getelementptr inbounds nuw i8, ptr %0, i64 300
  %18 = load i32, ptr %17, align 4, !tbaa !104
  %19 = tail call i32 (ptr, ...) @printf(ptr noundef nonnull dereferenceable(1) @.str.5, double noundef %16, i32 noundef %18)
  %20 = getelementptr inbounds nuw i8, ptr %0, i64 272
  %21 = load double, ptr %20, align 8, !tbaa !105
  %22 = getelementptr inbounds nuw i8, ptr %0, i64 304
  %23 = load i32, ptr %22, align 8, !tbaa !106
  %24 = tail call i32 (ptr, ...) @printf(ptr noundef nonnull dereferenceable(1) @.str.6, double noundef %21, i32 noundef %23)
  %puts16 = tail call i32 @puts(ptr nonnull dereferenceable(1) @str.3)
  %puts17 = tail call i32 @puts(ptr nonnull dereferenceable(1) @str.5)
  br label %.preheader

.preheader:                                       ; preds = %4, %1
  br label %25

25:                                               ; preds = %.preheader, %25
  %26 = tail call signext i8 @xSAT_SolverSearch(ptr noundef %0) #18
  %27 = icmp eq i8 %26, 0
  br i1 %27, label %25, label %28, !llvm.loop !107

28:                                               ; preds = %25
  %29 = load i8, ptr %2, align 8, !tbaa !101
  %.not18 = icmp eq i8 %29, 0
  br i1 %.not18, label %31, label %30

30:                                               ; preds = %28
  %puts19 = tail call i32 @puts(ptr nonnull dereferenceable(1) @str.5)
  br label %31

31:                                               ; preds = %30, %28
  %32 = sext i8 %26 to i32
  tail call void @xSAT_SolverCancelUntil(ptr noundef nonnull %0, i32 noundef 0) #18
  ret i32 %32
}